target datalayout = "e-m:e-p270:32:32-p271:32:32-p272:64:64-i64:64-i128:128-f80:128-n8:16:32:64-S128"
target triple = "x86_64-pc-linux-gnu"

%class.Klass = type <{ %class.Metadata, i32, i32, i32, i32, ptr, ptr, ptr, [8 x ptr], %class.OopHandle, ptr, ptr, ptr, ptr, ptr, i32, %class.AccessFlags, i64, i64, i8, i8, i16, i16, [2 x i8], i32, [4 x i8] }>
%class.Metadata = type { ptr }
%class.OopHandle = type { ptr }
%class.AccessFlags = type { i32 }
%"class.AccessInternal::OopLoadProxy.3" = type { ptr }

@_ZN12HotSpotJVMCI13BytecodeFrame6_klassE = hidden global ptr null, align 8
@_ZN12HotSpotJVMCI13BytecodeFrame18_BEFORE_BCI_offsetE = hidden global i32 0, align 4
@_ZN14AccessInternal15RuntimeDispatchILm548932EP7oopDescLNS_11BarrierTypeE2EE10_load_funcE = linkonce_odr hidden global ptr @_ZN14AccessInternal15RuntimeDispatchILm548932EP7oopDescLNS_11BarrierTypeE2EE9load_initEPv, comdat, align 8

; Function Attrs: mustprogress nounwind uwtable
define linkonce_odr hidden noundef ptr @_ZN16RawAccessBarrierILm68EE15decode_internalILm68EP7oopDescEENSt9enable_ifIXntsr14AccessInternal24MustConvertCompressedOopIXT_ET0_EE5valueES5_E4typeES5_(ptr noundef %0) #1 comdat align 2 {
  %2 = alloca ptr, align 8
  store ptr %0, ptr %2, align 8
  %3 = load ptr, ptr %2, align 8
  ret ptr %3
}

; Function Attrs: mustprogress nounwind uwtable
define linkonce_odr hidden noundef ptr @_ZN16RawAccessBarrierILm68EE13load_internalILm68EP7oopDescEENSt9enable_ifIXsr12HasDecoratorIXT_EL_ZL12MO_UNORDEREDEEE5valueET0_E4typeEPv(ptr noundef %0) #1 comdat align 2 {
  %2 = alloca ptr, align 8
  store ptr %0, ptr %2, align 8
  %3 = load ptr, ptr %2, align 8
  %4 = load ptr, ptr %3, align 8
  ret ptr %4
}

; Function Attrs: mustprogress nounwind uwtable
define linkonce_odr hidden noundef ptr @_ZN16RawAccessBarrierILm68EE6decodeIP7oopDescEET_N14AccessInternal11EncodedTypeILm68ES4_E4typeE(ptr noundef %0) #1 comdat align 2 {
  %2 = alloca ptr, align 8
  store ptr %0, ptr %2, align 8
  %3 = load ptr, ptr %2, align 8
  %4 = call noundef ptr @_ZN16RawAccessBarrierILm68EE15decode_internalILm68EP7oopDescEENSt9enable_ifIXntsr14AccessInternal24MustConvertCompressedOopIXT_ET0_EE5valueES5_E4typeES5_(ptr noundef %3)
  ret ptr %4
}

; Function Attrs: mustprogress nounwind uwtable
define linkonce_odr hidden noundef ptr @_ZN16RawAccessBarrierILm68EE4loadIP7oopDescEET_Pv(ptr noundef %0) #1 comdat align 2 {
  %2 = alloca ptr, align 8
  store ptr %0, ptr %2, align 8
  %3 = load ptr, ptr %2, align 8
  %4 = call noundef ptr @_ZN16RawAccessBarrierILm68EE13load_internalILm68EP7oopDescEENSt9enable_ifIXsr12HasDecoratorIXT_EL_ZL12MO_UNORDEREDEEE5valueET0_E4typeEPv(ptr noundef %3)
  ret ptr %4
}

; Function Attrs: mustprogress nounwind uwtable
define linkonce_odr hidden noundef ptr @_ZN16RawAccessBarrierILm68EE8oop_loadIP7oopDescEET_Pv(ptr noundef %0) #1 comdat align 2 {
  %2 = alloca ptr, align 8
  %3 = alloca ptr, align 8
  store ptr %0, ptr %2, align 8
  %4 = load ptr, ptr %2, align 8
  %5 = call noundef ptr @_ZN16RawAccessBarrierILm68EE4loadIP7oopDescEET_Pv(ptr noundef %4)
  store ptr %5, ptr %3, align 8
  %6 = load ptr, ptr %3, align 8
  %7 = call noundef ptr @_ZN16RawAccessBarrierILm68EE6decodeIP7oopDescEET_N14AccessInternal11EncodedTypeILm68ES4_E4typeE(ptr noundef %6)
  ret ptr %7
}

; Function Attrs: mustprogress nounwind uwtable
define linkonce_odr hidden noundef ptr @_ZN14AccessInternal15RuntimeDispatchILm548932EP7oopDescLNS_11BarrierTypeE2EE4loadEPv(ptr noundef %0) #1 comdat align 2 {
  %2 = alloca ptr, align 8
  store ptr %0, ptr %2, align 8
  %3 = load ptr, ptr @_ZN14AccessInternal15RuntimeDispatchILm548932EP7oopDescLNS_11BarrierTypeE2EE10_load_funcE, align 8
  %4 = load ptr, ptr %2, align 8
  %5 = call noundef ptr %3(ptr noundef %4)
  ret ptr %5
}

; Function Attrs: mustprogress nounwind uwtable
define linkonce_odr hidden noundef ptr @_ZN14AccessInternal18PreRuntimeDispatch4loadILm550980EP7oopDescEENSt9enable_ifIXaasr12HasDecoratorIXT_EL_ZL6AS_RAWEEE5valuesr14CanHardwireRawIXT_EEE5valueET0_E4typeEPv(ptr noundef %0) #1 comdat align 2 {
  %2 = alloca ptr, align 8
  store ptr %0, ptr %2, align 8
  %3 = load ptr, ptr %2, align 8
  %4 = call noundef ptr @_ZN16RawAccessBarrierILm68EE8oop_loadIP7oopDescEET_Pv(ptr noundef %3)
  ret ptr %4
}

; Function Attrs: mustprogress nounwind uwtable
define linkonce_odr hidden noundef zeroext i1 @_ZN14AccessInternal18PreRuntimeDispatch22is_hardwired_primitiveILm548932EEEbv() #1 comdat align 2 {
  ret i1 false
}

; Function Attrs: mustprogress nounwind uwtable
define linkonce_odr hidden noundef ptr @_ZN14AccessInternal18PreRuntimeDispatch4loadILm548932EP7oopDescEENSt9enable_ifIXntsr12HasDecoratorIXT_EL_ZL6AS_RAWEEE5valueET0_E4typeEPv(ptr noundef %0) #1 comdat align 2 {
  %2 = alloca ptr, align 8
  %3 = alloca ptr, align 8
  %4 = alloca i64, align 8
  store ptr %0, ptr %3, align 8
  %5 = call noundef zeroext i1 @_ZN14AccessInternal18PreRuntimeDispatch22is_hardwired_primitiveILm548932EEEbv()
  br i1 %5, label %6, label %9

6:                                                ; preds = %1
  store i64 550980, ptr %4, align 8
  %7 = load ptr, ptr %3, align 8
  %8 = call noundef ptr @_ZN14AccessInternal18PreRuntimeDispatch4loadILm550980EP7oopDescEENSt9enable_ifIXaasr12HasDecoratorIXT_EL_ZL6AS_RAWEEE5valuesr14CanHardwireRawIXT_EEE5valueET0_E4typeEPv(ptr noundef %7)
  store ptr %8, ptr %2, align 8
  br label %12

9:                                                ; preds = %1
  %10 = load ptr, ptr %3, align 8
  %11 = call noundef ptr @_ZN14AccessInternal15RuntimeDispatchILm548932EP7oopDescLNS_11BarrierTypeE2EE4loadEPv(ptr noundef %10)
  store ptr %11, ptr %2, align 8
  br label %12

12:                                               ; preds = %9, %6
  %13 = load ptr, ptr %2, align 8
  ret ptr %13
}

; Function Attrs: mustprogress nounwind uwtable
define linkonce_odr hidden noundef ptr @_ZN14AccessInternal17load_reduce_typesILm548932EP7oopDescEET0_PS3_(ptr noundef %0) #1 comdat {
  %2 = alloca ptr, align 8
  store ptr %0, ptr %2, align 8
  %3 = load ptr, ptr %2, align 8
  %4 = call noundef ptr @_ZN14AccessInternal18PreRuntimeDispatch4loadILm548932EP7oopDescEENSt9enable_ifIXntsr12HasDecoratorIXT_EL_ZL6AS_RAWEEE5valueET0_E4typeEPv(ptr noundef %3)
  ret ptr %4
}

; Function Attrs: mustprogress nounwind uwtable
define internal void @_ZN14AccessInternalL12verify_typesILm524292EP7oopDescEEvv() #1 {
  ret void
}

; Function Attrs: mustprogress nounwind uwtable
define linkonce_odr hidden void @_ZN6AccessILm524288EE17verify_decoratorsILm16645568EEEvv() #1 comdat align 2 {
  %1 = alloca i64, align 8
  %2 = alloca i64, align 8
  %3 = alloca i64, align 8
  %4 = alloca i64, align 8
  store i64 0, ptr %1, align 8
  store i64 0, ptr %2, align 8
  store i64 0, ptr %3, align 8
  store i64 524288, ptr %4, align 8
  ret void
}

; Function Attrs: mustprogress nounwind uwtable
define linkonce_odr hidden noundef ptr @_ZN14AccessInternal4loadILm524292EP7oopDescS2_EET1_PT0_(ptr noundef %0) #1 comdat {
  %2 = alloca ptr, align 8
  %3 = alloca i64, align 8
  store ptr %0, ptr %2, align 8
  call void @_ZN14AccessInternalL12verify_typesILm524292EP7oopDescEEvv()
  store i64 548932, ptr %3, align 8
  %4 = load ptr, ptr %2, align 8
  %5 = call noundef ptr @_ZN14AccessInternal17load_reduce_typesILm548932EP7oopDescEET0_PS3_(ptr noundef %4)
  ret ptr %5
}

; Function Attrs: mustprogress nounwind uwtable
define linkonce_odr hidden void @_ZN14AccessInternal12OopLoadProxyIP7oopDescLm524288EEC2EPS2_(ptr noundef nonnull align 8 dereferenceable(8) %0, ptr noundef %1) unnamed_addr #1 comdat align 2 {
  %3 = alloca ptr, align 8
  %4 = alloca ptr, align 8
  store ptr %0, ptr %3, align 8
  store ptr %1, ptr %4, align 8
  %5 = load ptr, ptr %3, align 8
  %6 = getelementptr inbounds %"class.AccessInternal::OopLoadProxy.3", ptr %5, i32 0, i32 0
  %7 = load ptr, ptr %4, align 8
  store ptr %7, ptr %6, align 8
  ret void
}

; Function Attrs: mustprogress nounwind uwtable
define linkonce_odr hidden void @_ZN6AccessILm524288EE21verify_oop_decoratorsILm1472EEEvv() #1 comdat align 2 {
  %1 = alloca i64, align 8
  store i64 16644096, ptr %1, align 8
  call void @_ZN6AccessILm524288EE17verify_decoratorsILm16645568EEEvv()
  ret void
}

; Function Attrs: mustprogress nounwind uwtable
define linkonce_odr hidden noundef ptr @_ZN14AccessInternal12OopLoadProxyIP7oopDescLm524288EEcvS2_Ev(ptr noundef nonnull align 8 dereferenceable(8) %0) #1 comdat align 2 {
  %2 = alloca ptr, align 8
  store ptr %0, ptr %2, align 8
  %3 = load ptr, ptr %2, align 8
  %4 = getelementptr inbounds %"class.AccessInternal::OopLoadProxy.3", ptr %3, i32 0, i32 0
  %5 = load ptr, ptr %4, align 8
  %6 = call noundef ptr @_ZN14AccessInternal4loadILm524292EP7oopDescS2_EET1_PT0_(ptr noundef %5)
  ret ptr %6
}

; Function Attrs: mustprogress nounwind uwtable
define linkonce_odr hidden ptr @_ZN6AccessILm524288EE8oop_loadIP7oopDescEEN14AccessInternal12OopLoadProxyIT_Lm524288EEEPS6_(ptr noundef %0) #1 comdat align 2 {
  %2 = alloca %"class.AccessInternal::OopLoadProxy.3", align 8
  %3 = alloca ptr, align 8
  store ptr %0, ptr %3, align 8
  call void @_ZN6AccessILm524288EE21verify_oop_decoratorsILm1472EEEvv()
  %4 = load ptr, ptr %3, align 8
  call void @_ZN14AccessInternal12OopLoadProxyIP7oopDescLm524288EEC2EPS2_(ptr noundef nonnull align 8 dereferenceable(8) %2, ptr noundef %4)
  %5 = getelementptr inbounds %"class.AccessInternal::OopLoadProxy.3", ptr %2, i32 0, i32 0
  %6 = load ptr, ptr %5, align 8
  ret ptr %6
}

; Function Attrs: mustprogress nounwind uwtable
define linkonce_odr hidden noundef ptr @_ZNK9OopHandle7resolveEv(ptr noundef nonnull align 8 dereferenceable(8) %0) #1 comdat align 2 {
  %2 = alloca ptr, align 8
  %3 = alloca %"class.AccessInternal::OopLoadProxy.3", align 8
  store ptr %0, ptr %2, align 8
  %4 = load ptr, ptr %2, align 8
  %5 = getelementptr inbounds %class.OopHandle, ptr %4, i32 0, i32 0
  %6 = load ptr, ptr %5, align 8
  %7 = icmp eq ptr %6, null
  br i1 %7, label %8, label %9

8:                                                ; preds = %1
  br label %15

9:                                                ; preds = %1
  %10 = getelementptr inbounds %class.OopHandle, ptr %4, i32 0, i32 0
  %11 = load ptr, ptr %10, align 8
  %12 = call ptr @_ZN6AccessILm524288EE8oop_loadIP7oopDescEEN14AccessInternal12OopLoadProxyIT_Lm524288EEEPS6_(ptr noundef %11)
  %13 = getelementptr inbounds %"class.AccessInternal::OopLoadProxy.3", ptr %3, i32 0, i32 0
  store ptr %12, ptr %13, align 8
  %14 = call noundef ptr @_ZN14AccessInternal12OopLoadProxyIP7oopDescLm524288EEcvS2_Ev(ptr noundef nonnull align 8 dereferenceable(8) %3)
  br label %15

15:                                               ; preds = %9, %8
  %16 = phi ptr [ null, %8 ], [ %14, %9 ]
  ret ptr %16
}

; Function Attrs: mustprogress nounwind uwtable
define linkonce_odr hidden noundef i64 @_Z13cast_from_oopIlET_P7oopDesc(ptr noundef %0) #1 comdat {
  %2 = alloca ptr, align 8
  store ptr %0, ptr %2, align 8
  %3 = load ptr, ptr %2, align 8
  %4 = ptrtoint ptr %3 to i64
  ret i64 %4
}

; Function Attrs: mustprogress nounwind uwtable
define linkonce_odr hidden noundef ptr @_ZNK7oopDesc6as_oopEv(ptr noundef nonnull align 8 dereferenceable(16) %0) #1 comdat align 2 {
  %2 = alloca ptr, align 8
  store ptr %0, ptr %2, align 8
  %3 = load ptr, ptr %2, align 8
  ret ptr %3
}

; Function Attrs: mustprogress nounwind uwtable
define linkonce_odr hidden noundef ptr @_ZNK5Klass11java_mirrorEv(ptr noundef nonnull align 8 dereferenceable(196) %0) #1 comdat align 2 {
  %2 = alloca ptr, align 8
  store ptr %0, ptr %2, align 8
  %3 = load ptr, ptr %2, align 8
  %4 = getelementptr inbounds %class.Klass, ptr %3, i32 0, i32 9
  %5 = call noundef ptr @_ZNK9OopHandle7resolveEv(ptr noundef nonnull align 8 dereferenceable(8) %4)
  ret ptr %5
}

; Function Attrs: mustprogress nounwind uwtable
define linkonce_odr hidden noundef ptr @_ZNK7oopDesc10field_addrIiEEPT_i(ptr noundef nonnull align 8 dereferenceable(16) %0, i32 noundef %1) #1 comdat align 2 {
  %3 = alloca ptr, align 8
  %4 = alloca i32, align 4
  store ptr %0, ptr %3, align 8
  store i32 %1, ptr %4, align 4
  %5 = load ptr, ptr %3, align 8
  %6 = call noundef ptr @_ZNK7oopDesc6as_oopEv(ptr noundef nonnull align 8 dereferenceable(16) %5)
  %7 = call noundef i64 @_Z13cast_from_oopIlET_P7oopDesc(ptr noundef %6)
  %8 = load i32, ptr %4, align 4
  %9 = sext i32 %8 to i64
  %10 = add nsw i64 %7, %9
  %11 = inttoptr i64 %10 to ptr
  ret ptr %11
}

; Function Attrs: mustprogress nounwind uwtable
define linkonce_odr hidden noundef ptr @_ZN13InstanceKlass21static_field_base_rawEv(ptr noundef nonnull align 8 dereferenceable(464) %0) #1 comdat align 2 {
  %2 = alloca ptr, align 8
  store ptr %0, ptr %2, align 8
  %3 = load ptr, ptr %2, align 8
  %4 = call noundef ptr @_ZNK5Klass11java_mirrorEv(ptr noundef nonnull align 8 dereferenceable(196) %3)
  ret ptr %4
}

; Function Attrs: mustprogress nounwind uwtable
define linkonce_odr hidden noundef ptr @_ZN12HotSpotJVMCI13BytecodeFrame5klassEv() #1 comdat align 2 {
  %1 = load ptr, ptr @_ZN12HotSpotJVMCI13BytecodeFrame6_klassE, align 8
  ret ptr %1
}

; Function Attrs: mustprogress nounwind uwtable
define hidden noundef i32 @_ZN12HotSpotJVMCI13BytecodeFrame14get_BEFORE_BCIEP8JVMCIEnv(ptr noundef %0) #1 align 2 {
  %2 = alloca ptr, align 8
  %3 = alloca ptr, align 8
  %4 = alloca ptr, align 8
  store ptr %0, ptr %2, align 8
  %5 = call noundef ptr @_ZN12HotSpotJVMCI13BytecodeFrame5klassEv()
  store ptr %5, ptr %3, align 8
  %6 = load ptr, ptr %3, align 8
  %7 = call noundef ptr @_ZN13InstanceKlass21static_field_base_rawEv(ptr noundef nonnull align 8 dereferenceable(464) %6)
  store ptr %7, ptr %4, align 8
  %8 = load ptr, ptr %4, align 8
  %9 = load i32, ptr @_ZN12HotSpotJVMCI13BytecodeFrame18_BEFORE_BCI_offsetE, align 4
  %10 = call noundef ptr @_ZNK7oopDesc10field_addrIiEEPT_i(ptr noundef nonnull align 8 dereferenceable(16) %8, i32 noundef %9)
  %11 = load i32, ptr %10, align 4
  ret i32 %11
}